target datalayout = "e-m:e-p270:32:32-p271:32:32-p272:64:64-i64:64-i128:128-f80:128-n8:16:32:64-S128"
target triple = "x86_64-pc-linux-gnu"

%struct.except_id_t = type { i64, i64 }
%struct.except_stacknode = type { ptr, i32, %union.anon }
%union.anon = type { ptr }
%struct.except_catch = type { ptr, i64, %struct.except_t, [1 x %struct.__jmp_buf_tag] }
%struct.except_t = type { %struct.except_id_t, ptr, ptr }
%struct.__jmp_buf_tag = type { [8 x i64], i32, %struct.__sigset_t }
%struct.__sigset_t = type { [16 x i64] }

@wireshark_abort_on_dissector_bug = hidden global i8 0, align 1
@epan_plugins = internal global ptr null, align 8
@epan_plugin_register_all_procotols = internal global ptr null, align 8
@epan_plugin_register_all_handoffs = internal global ptr null, align 8
@.str.1 = private unnamed_addr constant [33 x i8] c"WIRESHARK_ABORT_ON_DISSECTOR_BUG\00", align 1
@.str.2 = private unnamed_addr constant [34 x i8] c"WIRESHARK_ABORT_ON_TOO_MANY_ITEMS\00", align 1
@wireshark_abort_on_too_many_items = hidden global i8 0, align 1
@libwireshark_plugins = internal global ptr null, align 8
@epan_init.catch_spec = internal constant [1 x %struct.except_id_t] [%struct.except_id_t { i64 1, i64 0 }], align 16
@epan_init.dissector_error_nomsg = internal constant [57 x i8] c"Dissector writer didn't bother saying what the error was\00", align 16
@.str.3 = private unnamed_addr constant [18 x i8] c"Dissector bug: %s\00", align 1

; Function Attrs: null_pointer_is_valid sspstrong uwtable
define zeroext i1 @epan_init(ptr noundef %0, ptr noundef %1, i1 noundef zeroext %2) #5 {
  %4 = alloca ptr, align 8
  %5 = alloca ptr, align 8
  %6 = alloca i8, align 1
  %7 = alloca i8, align 1
  %8 = alloca ptr, align 8
  %9 = alloca i32, align 4
  %10 = alloca %struct.except_stacknode, align 8
  %11 = alloca %struct.except_catch, align 8
  %12 = alloca ptr, align 8
  store ptr %0, ptr %4, align 8
  store ptr %1, ptr %5, align 8
  %13 = zext i1 %2 to i8
  store i8 %13, ptr %6, align 1
  call void @llvm.lifetime.start.p0(i64 1, ptr %7) #17
  store volatile i8 1, ptr %7, align 1
  %14 = call ptr @getenv(ptr noundef @.str.1) #17
  %15 = icmp ne ptr %14, null
  br i1 %15, label %16, label %17

16:                                               ; preds = %3
  store i8 1, ptr @wireshark_abort_on_dissector_bug, align 1
  br label %18

17:                                               ; preds = %3
  store i8 0, ptr @wireshark_abort_on_dissector_bug, align 1
  br label %18

18:                                               ; preds = %17, %16
  %19 = call ptr @getenv(ptr noundef @.str.2) #17
  %20 = icmp ne ptr %19, null
  br i1 %20, label %21, label %22

21:                                               ; preds = %18
  store i8 1, ptr @wireshark_abort_on_too_many_items, align 1
  br label %23

22:                                               ; preds = %18
  store i8 0, ptr @wireshark_abort_on_too_many_items, align 1
  br label %23

23:                                               ; preds = %22, %21
  call void @wmem_init_scopes()
  call void @guids_init()
  call void @addr_resolv_init()
  %24 = call i32 @except_init()
  call void @dfilter_translator_init()
  %25 = load i8, ptr %6, align 1, !range !6, !noundef !7
  %26 = trunc i8 %25 to i1
  br i1 %26, label %27, label %29

27:                                               ; preds = %23
  %28 = call ptr @plugins_init(i32 noundef 0)
  store ptr %28, ptr @libwireshark_plugins, align 8
  br label %29

29:                                               ; preds = %27, %23
  %30 = call ptr @gcry_check_version(ptr noundef null)
  %31 = call i32 (i32, ...) @gcry_control(i32 noundef 37, i32 noundef 0)
  %32 = call i32 (i32, ...) @gcry_control(i32 noundef 38, i32 noundef 0)
  %33 = call i32 @gnutls_global_init()
  %34 = call i32 @gnutls_fips140_mode_enabled()
  %35 = icmp ne i32 %34, 0
  br i1 %35, label %36, label %37

36:                                               ; preds = %29
  call void @gnutls_fips140_set_mode(i32 noundef 3, i32 noundef 0)
  br label %37

37:                                               ; preds = %36, %29
  call void @xmlInitParser()
  call void @xmlCheckVersion(i32 noundef 20913)
  %38 = call ptr @signal(i32 noundef 13, ptr noundef inttoptr (i64 1 to ptr)) #17
  call void @llvm.lifetime.start.p0(i64 8, ptr %8) #17
  call void @llvm.lifetime.start.p0(i64 4, ptr %9) #17
  store volatile i32 0, ptr %9, align 4
  call void @llvm.lifetime.start.p0(i64 24, ptr %10) #17
  call void @llvm.lifetime.start.p0(i64 248, ptr %11) #17
  call void @except_setup_try(ptr noundef %10, ptr noundef %11, ptr noundef @epan_init.catch_spec, i64 noundef 1)
  %39 = getelementptr inbounds nuw %struct.except_catch, ptr %11, i32 0, i32 3
  %40 = getelementptr inbounds [1 x %struct.__jmp_buf_tag], ptr %39, i64 0, i64 0
  %41 = call i32 @_setjmp(ptr noundef %40) #19
  %42 = icmp ne i32 %41, 0
  br i1 %42, label %43, label %45

43:                                               ; preds = %37
  %44 = getelementptr inbounds nuw %struct.except_catch, ptr %11, i32 0, i32 2
  store volatile ptr %44, ptr %8, align 8
  br label %46

45:                                               ; preds = %37
  store volatile ptr null, ptr %8, align 8
  br label %46

46:                                               ; preds = %45, %43
  %47 = load volatile i32, ptr %9, align 4
  %48 = and i32 %47, 1
  %49 = icmp ne i32 %48, 0
  br i1 %49, label %50, label %53

50:                                               ; preds = %46
  %51 = load volatile i32, ptr %9, align 4
  %52 = or i32 %51, 2
  store volatile i32 %52, ptr %9, align 4
  br label %53

53:                                               ; preds = %50, %46
  %54 = load volatile i32, ptr %9, align 4
  %55 = and i32 %54, -2
  store volatile i32 %55, ptr %9, align 4
  %56 = load volatile i32, ptr %9, align 4
  %57 = icmp eq i32 %56, 0
  br i1 %57, label %58, label %69

58:                                               ; preds = %53
  %59 = load volatile ptr, ptr %8, align 8
  %60 = icmp eq ptr %59, null
  br i1 %60, label %61, label %69

61:                                               ; preds = %58
  call void @export_pdu_init()
  call void @tap_init()
  call void @prefs_init()
  call void @expert_init()
  call void @packet_init()
  call void @secrets_init()
  call void @conversation_init()
  call void @capture_dissector_init()
  call void @reassembly_tables_init()
  call void @conversation_filters_init()
  %62 = load ptr, ptr @epan_plugins, align 8
  call void @g_slist_foreach(ptr noundef %62, ptr noundef @epan_plugin_init, ptr noundef null)
  %63 = load ptr, ptr @epan_plugin_register_all_procotols, align 8
  %64 = load ptr, ptr @epan_plugin_register_all_handoffs, align 8
  %65 = load ptr, ptr %4, align 8
  %66 = load ptr, ptr %5, align 8
  call void @proto_init(ptr noundef %63, ptr noundef %64, ptr noundef %65, ptr noundef %66)
  %67 = load ptr, ptr @epan_plugins, align 8
  call void @g_slist_foreach(ptr noundef %67, ptr noundef @epan_plugin_register_all_tap_listeners, ptr noundef null)
  call void @packet_cache_proto_handles()
  call void @dfilter_init()
  call void @wscbor_init()
  call void @final_registration_all_protocols()
  call void @print_cache_field_handles()
  call void @expert_packet_init()
  %68 = load ptr, ptr @epan_plugins, align 8
  call void @g_slist_foreach(ptr noundef %68, ptr noundef @epan_plugin_post_init, ptr noundef null)
  br label %69

69:                                               ; preds = %61, %58, %53
  %70 = load volatile i32, ptr %9, align 4
  %71 = icmp eq i32 %70, 0
  br i1 %71, label %72, label %100

72:                                               ; preds = %69
  %73 = load volatile ptr, ptr %8, align 8
  %74 = icmp ne ptr %73, null
  br i1 %74, label %75, label %100

75:                                               ; preds = %72
  %76 = load volatile ptr, ptr %8, align 8
  %77 = getelementptr inbounds nuw %struct.except_t, ptr %76, i32 0, i32 0
  %78 = getelementptr inbounds nuw %struct.except_id_t, ptr %77, i32 0, i32 1
  %79 = load volatile i64, ptr %78, align 8
  %80 = icmp eq i64 %79, 6
  br i1 %80, label %81, label %100

81:                                               ; preds = %75
  %82 = load volatile i32, ptr %9, align 4
  %83 = or i32 %82, 1
  store volatile i32 %83, ptr %9, align 4
  %84 = icmp ne i32 %83, 0
  br i1 %84, label %85, label %100

85:                                               ; preds = %81
  call void @llvm.lifetime.start.p0(i64 8, ptr %12) #17
  %86 = load volatile ptr, ptr %8, align 8
  %87 = getelementptr inbounds nuw %struct.except_t, ptr %86, i32 0, i32 1
  %88 = load volatile ptr, ptr %87, align 8
  store ptr %88, ptr %12, align 8
  %89 = load ptr, ptr %12, align 8
  %90 = icmp eq ptr %89, null
  br i1 %90, label %91, label %92

91:                                               ; preds = %85
  br label %94

92:                                               ; preds = %85
  %93 = load ptr, ptr %12, align 8
  br label %94

94:                                               ; preds = %92, %91
  %95 = phi ptr [ @epan_init.dissector_error_nomsg, %91 ], [ %93, %92 ]
  call void (ptr, ...) @report_failure(ptr noundef @.str.3, ptr noundef %95)
  %96 = call ptr @getenv(ptr noundef @.str.1) #17
  %97 = icmp ne ptr %96, null
  br i1 %97, label %98, label %99

98:                                               ; preds = %94
  call void @abort() #18
  unreachable

99:                                               ; preds = %94
  store volatile i8 0, ptr %7, align 1
  call void @llvm.lifetime.end.p0(i64 8, ptr %12) #17
  br label %100

100:                                              ; preds = %99, %81, %75, %72, %69
  %101 = load volatile i32, ptr %9, align 4
  %102 = and i32 %101, 1
  %103 = icmp ne i32 %102, 0
  br i1 %103, label %109, label %104

104:                                              ; preds = %100
  %105 = load volatile ptr, ptr %8, align 8
  %106 = icmp ne ptr %105, null
  br i1 %106, label %107, label %109

107:                                              ; preds = %104
  %108 = load volatile ptr, ptr %8, align 8
  call void @except_rethrow(ptr noundef %108) #20
  unreachable

109:                                              ; preds = %104, %100
  %110 = getelementptr inbounds nuw %struct.except_catch, ptr %11, i32 0, i32 2
  %111 = getelementptr inbounds nuw %struct.except_t, ptr %110, i32 0, i32 2
  %112 = load volatile ptr, ptr %111, align 8
  call void @except_free(ptr noundef %112)
  %113 = call ptr @except_pop()
  call void @llvm.lifetime.end.p0(i64 248, ptr %11) #17
  call void @llvm.lifetime.end.p0(i64 24, ptr %10) #17
  call void @llvm.lifetime.end.p0(i64 4, ptr %9) #17
  call void @llvm.lifetime.end.p0(i64 8, ptr %8) #17
  %114 = load volatile i8, ptr %7, align 1, !range !6, !noundef !7
  %115 = trunc i8 %114 to i1
  call void @llvm.lifetime.end.p0(i64 1, ptr %7) #17
  ret i1 %115
}