; Function Attrs: null_pointer_is_valid sspstrong uwtable
define zeroext i1 @epan_init(ptr noundef %0, ptr noundef %1, i1 noundef zeroext %2) local_unnamed_addr #6 {
  %4 = alloca i8, align 1
  %5 = alloca ptr, align 8
  %6 = alloca i32, align 4
  %7 = alloca %struct.except_stacknode, align 8
  %8 = alloca %struct.except_catch, align 8
  call void @llvm.lifetime.start.p0(i64 1, ptr nonnull %4)
  store volatile i8 1, ptr %4, align 1
  %9 = call ptr @getenv(ptr noundef nonnull @.str.1) #17
  %.not = icmp ne ptr %9, null
  %. = zext i1 %.not to i8
  store i8 %., ptr @wireshark_abort_on_dissector_bug, align 1
  %10 = call ptr @getenv(ptr noundef nonnull @.str.2) #17
  %.not18 = icmp ne ptr %10, null
  %storemerge19 = zext i1 %.not18 to i8
  store i8 %storemerge19, ptr @wireshark_abort_on_too_many_items, align 1
  call void @wmem_init_scopes()
  call void @guids_init()
  call void @addr_resolv_init()
  %11 = call i32 @except_init()
  call void @dfilter_translator_init()
  br i1 %2, label %12, label %14

12:                                               ; preds = %3
  %13 = call ptr @plugins_init(i32 noundef 0)
  store ptr %13, ptr @libwireshark_plugins, align 8
  br label %14

14:                                               ; preds = %12, %3
  %15 = call ptr @gcry_check_version(ptr noundef null)
  %16 = call i32 (i32, ...) @gcry_control(i32 noundef 37, i32 noundef 0)
  %17 = call i32 (i32, ...) @gcry_control(i32 noundef 38, i32 noundef 0)
  %18 = call i32 @gnutls_global_init()
  %19 = call i32 @gnutls_fips140_mode_enabled()
  %.not20 = icmp eq i32 %19, 0
  br i1 %.not20, label %21, label %20

20:                                               ; preds = %14
  call void @gnutls_fips140_set_mode(i32 noundef 3, i32 noundef 0)
  br label %21

21:                                               ; preds = %20, %14
  call void @xmlInitParser()
  call void @xmlCheckVersion(i32 noundef 20913)
  %22 = call ptr @signal(i32 noundef 13, ptr noundef nonnull inttoptr (i64 1 to ptr)) #17
  call void @llvm.lifetime.start.p0(i64 8, ptr nonnull %5)
  call void @llvm.lifetime.start.p0(i64 4, ptr nonnull %6)
  store volatile i32 0, ptr %6, align 4
  call void @llvm.lifetime.start.p0(i64 24, ptr nonnull %7) #17
  call void @llvm.lifetime.start.p0(i64 248, ptr nonnull %8) #17
  call void @except_setup_try(ptr noundef nonnull %7, ptr noundef nonnull %8, ptr noundef nonnull @epan_init.catch_spec, i64 noundef 1)
  %23 = getelementptr inbounds nuw i8, ptr %8, i64 48
  %24 = call i32 @_setjmp(ptr noundef nonnull %23) #19
  %.not21 = icmp eq i32 %24, 0
  %25 = getelementptr inbounds nuw i8, ptr %8, i64 16
  %.sink = select i1 %.not21, ptr null, ptr %25
  store volatile ptr %.sink, ptr %5, align 8
  %.0..0..0..0.2 = load volatile i32, ptr %6, align 4
  %26 = and i32 %.0..0..0..0.2, 1
  %.not22 = icmp eq i32 %26, 0
  br i1 %.not22, label %29, label %27

27:                                               ; preds = %21
  %.0..0..0..0.3 = load volatile i32, ptr %6, align 4
  %28 = or i32 %.0..0..0..0.3, 2
  store volatile i32 %28, ptr %6, align 4
  br label %29

29:                                               ; preds = %27, %21
  %.0..0..0..0.4 = load volatile i32, ptr %6, align 4
  %30 = and i32 %.0..0..0..0.4, -2
  store volatile i32 %30, ptr %6, align 4
  %.0..0..0..0.5 = load volatile i32, ptr %6, align 4
  %31 = icmp eq i32 %.0..0..0..0.5, 0
  br i1 %31, label %32, label %40

32:                                               ; preds = %29
  %.0..0..0..0.9 = load volatile ptr, ptr %5, align 8
  %33 = icmp eq ptr %.0..0..0..0.9, null
  br i1 %33, label %34, label %40

34:                                               ; preds = %32
  call void @export_pdu_init()
  call void @tap_init()
  call void @prefs_init()
  call void @expert_init()
  call void @packet_init()
  call void @secrets_init()
  call void @conversation_init()
  call void @capture_dissector_init()
  call void @reassembly_tables_init()
  call void @conversation_filters_init()
  %35 = load ptr, ptr @epan_plugins, align 8
  call void @g_slist_foreach(ptr noundef %35, ptr noundef nonnull @epan_plugin_init, ptr noundef null)
  %36 = load ptr, ptr @epan_plugin_register_all_procotols, align 8
  %37 = load ptr, ptr @epan_plugin_register_all_handoffs, align 8
  call void @proto_init(ptr noundef %36, ptr noundef %37, ptr noundef %0, ptr noundef %1)
  %38 = load ptr, ptr @epan_plugins, align 8
  call void @g_slist_foreach(ptr noundef %38, ptr noundef nonnull @epan_plugin_register_all_tap_listeners, ptr noundef null)
  call void @packet_cache_proto_handles()
  call void @dfilter_init()
  call void @wscbor_init()
  call void @final_registration_all_protocols()
  call void @print_cache_field_handles()
  call void @expert_packet_init()
  %39 = load ptr, ptr @epan_plugins, align 8
  call void @g_slist_foreach(ptr noundef %39, ptr noundef nonnull @epan_plugin_post_init, ptr noundef null)
  br label %40

40:                                               ; preds = %34, %32, %29
  %.0..0..0..0.6 = load volatile i32, ptr %6, align 4
  %41 = icmp eq i32 %.0..0..0..0.6, 0
  br i1 %41, label %42, label %56

42:                                               ; preds = %40
  %.0..0..0..0.10 = load volatile ptr, ptr %5, align 8
  %.not23 = icmp eq ptr %.0..0..0..0.10, null
  br i1 %.not23, label %56, label %43

43:                                               ; preds = %42
  %.0..0..0..0.11 = load volatile ptr, ptr %5, align 8
  %44 = getelementptr inbounds nuw i8, ptr %.0..0..0..0.11, i64 8
  %45 = load volatile i64, ptr %44, align 8
  %46 = icmp eq i64 %45, 6
  br i1 %46, label %47, label %56

47:                                               ; preds = %43
  %.0..0..0..0.7 = load volatile i32, ptr %6, align 4
  %48 = or i32 %.0..0..0..0.7, 1
  store volatile i32 %48, ptr %6, align 4
  %.0..0..0..0.12 = load volatile ptr, ptr %5, align 8
  %49 = getelementptr inbounds nuw i8, ptr %.0..0..0..0.12, i64 16
  %50 = load volatile ptr, ptr %49, align 8
  %51 = icmp eq ptr %50, null
  %52 = select i1 %51, ptr @epan_init.dissector_error_nomsg, ptr %50
  call void (ptr, ...) @report_failure(ptr noundef nonnull @.str.3, ptr noundef nonnull %52)
  %53 = call ptr @getenv(ptr noundef nonnull @.str.1) #17
  %.not24 = icmp eq ptr %53, null
  br i1 %.not24, label %55, label %54

54:                                               ; preds = %47
  call void @abort() #18
  unreachable

55:                                               ; preds = %47
  store volatile i8 0, ptr %4, align 1
  br label %56

56:                                               ; preds = %55, %43, %42, %40
  %.0..0..0..0.8 = load volatile i32, ptr %6, align 4
  %57 = and i32 %.0..0..0..0.8, 1
  %.not25 = icmp eq i32 %57, 0
  br i1 %.not25, label %58, label %60

58:                                               ; preds = %56
  %.0..0..0..0.13 = load volatile ptr, ptr %5, align 8
  %.not26 = icmp eq ptr %.0..0..0..0.13, null
  br i1 %.not26, label %60, label %59

59:                                               ; preds = %58
  %.0..0..0..0.14 = load volatile ptr, ptr %5, align 8
  call void @except_rethrow(ptr noundef %.0..0..0..0.14) #20
  unreachable

60:                                               ; preds = %58, %56
  %61 = getelementptr inbounds nuw i8, ptr %8, i64 40
  %62 = load volatile ptr, ptr %61, align 8
  call void @except_free(ptr noundef %62)
  %63 = call ptr @except_pop()
  call void @llvm.lifetime.end.p0(i64 248, ptr nonnull %8) #17
  call void @llvm.lifetime.end.p0(i64 24, ptr nonnull %7) #17
  call void @llvm.lifetime.end.p0(i64 4, ptr nonnull %6)
  call void @llvm.lifetime.end.p0(i64 8, ptr nonnull %5)
  %.0..0..0..0.15 = load volatile i8, ptr %4, align 1, !range !6, !noundef !7
  %64 = trunc nuw i8 %.0..0..0..0.15 to i1
  call void @llvm.lifetime.end.p0(i64 1, ptr nonnull %4)
  ret i1 %64
}